; ModuleID = '51/5.c'
source_filename = "51/5.c"
target datalayout = "e-m:e-p270:32:32-p271:32:32-p272:64:64-i64:64-f80:128-n8:16:32:64-S128"
target triple = "x86_64-pc-linux-gnu"

@.str = private unnamed_addr constant [3 x i8] c"%d\00", align 1
@.str.1 = private unnamed_addr constant [3 x i8] c"%s\00", align 1
@.str.2 = private unnamed_addr constant [4 x i8] c"%d\0A\00", align 1
@.str.3 = private unnamed_addr constant [4 x i8] c"%s\0A\00", align 1
@.str.4 = private unnamed_addr constant [3 x i8] c"NO\00", align 1

; Function Attrs: noinline nounwind uwtable
define dso_local void @main() #0 {
  %1 = alloca i32, align 4
  %2 = alloca i32, align 4
  %3 = alloca i32, align 4
  %4 = alloca i32, align 4
  %5 = alloca i32, align 4
  %6 = alloca i32, align 4
  %7 = alloca [500 x i32], align 16
  %8 = alloca i32, align 4
  %9 = alloca [500 x i8], align 16
  %10 = alloca [500 x [5 x i8]], align 16
  store i32 0, i32* %5, align 4
  store i32 0, i32* %6, align 4
  %11 = call i32 (i8*, ...) @__isoc99_scanf(i8* getelementptr inbounds ([3 x i8], [3 x i8]* @.str, i64 0, i64 0), i32* %2)
  %12 = getelementptr inbounds [500 x i8], [500 x i8]* %9, i64 0, i64 0
  %13 = call i32 (i8*, ...) @__isoc99_scanf(i8* getelementptr inbounds ([3 x i8], [3 x i8]* @.str.1, i64 0, i64 0), i8* %12)
  %14 = getelementptr inbounds [500 x i8], [500 x i8]* %9, i64 0, i64 0
  %15 = call i64 @strlen(i8* %14) #3
  %16 = trunc i64 %15 to i32
  store i32 %16, i32* %1, align 4
  store i32 0, i32* %3, align 4
  br label %17

17:                                               ; preds = %49, %0
  %18 = load i32, i32* %3, align 4
  %19 = load i32, i32* %1, align 4
  %20 = load i32, i32* %2, align 4
  %21 = sub nsw i32 %19, %20
  %22 = icmp sle i32 %18, %21
  br i1 %22, label %23, label %52

23:                                               ; preds = %17
  store i32 0, i32* %4, align 4
  br label %24

24:                                               ; preds = %41, %23
  %25 = load i32, i32* %4, align 4
  %26 = load i32, i32* %2, align 4
  %27 = icmp slt i32 %25, %26
  br i1 %27, label %28, label %44

28:                                               ; preds = %24
  %29 = load i32, i32* %6, align 4
  %30 = sext i32 %29 to i64
  %31 = getelementptr inbounds [500 x i8], [500 x i8]* %9, i64 0, i64 %30
  %32 = load i8, i8* %31, align 1
  %33 = load i32, i32* %3, align 4
  %34 = sext i32 %33 to i64
  %35 = getelementptr inbounds [500 x [5 x i8]], [500 x [5 x i8]]* %10, i64 0, i64 %34
  %36 = load i32, i32* %4, align 4
  %37 = sext i32 %36 to i64
  %38 = getelementptr inbounds [5 x i8], [5 x i8]* %35, i64 0, i64 %37
  store i8 %32, i8* %38, align 1
  %39 = load i32, i32* %6, align 4
  %40 = add nsw i32 %39, 1
  store i32 %40, i32* %6, align 4
  br label %41

41:                                               ; preds = %28
  %42 = load i32, i32* %4, align 4
  %43 = add nsw i32 %42, 1
  store i32 %43, i32* %4, align 4
  br label %24

44:                                               ; preds = %24
  %45 = load i32, i32* %6, align 4
  %46 = load i32, i32* %2, align 4
  %47 = sub nsw i32 %45, %46
  %48 = add nsw i32 %47, 1
  store i32 %48, i32* %6, align 4
  br label %49

49:                                               ; preds = %44
  %50 = load i32, i32* %3, align 4
  %51 = add nsw i32 %50, 1
  store i32 %51, i32* %3, align 4
  br label %17

52:                                               ; preds = %17
  store i32 0, i32* %3, align 4
  br label %53

53:                                               ; preds = %93, %52
  %54 = load i32, i32* %3, align 4
  %55 = load i32, i32* %1, align 4
  %56 = load i32, i32* %2, align 4
  %57 = sub nsw i32 %55, %56
  %58 = icmp sle i32 %54, %57
  br i1 %58, label %59, label %96

59:                                               ; preds = %53
  %60 = load i32, i32* %3, align 4
  %61 = sext i32 %60 to i64
  %62 = getelementptr inbounds [500 x i32], [500 x i32]* %7, i64 0, i64 %61
  store i32 1, i32* %62, align 4
  %63 = load i32, i32* %3, align 4
  %64 = add nsw i32 %63, 1
  store i32 %64, i32* %4, align 4
  br label %65

65:                                               ; preds = %89, %59
  %66 = load i32, i32* %4, align 4
  %67 = load i32, i32* %1, align 4
  %68 = load i32, i32* %2, align 4
  %69 = sub nsw i32 %67, %68
  %70 = icmp sle i32 %66, %69
  br i1 %70, label %71, label %92

71:                                               ; preds = %65
  %72 = load i32, i32* %3, align 4
  %73 = sext i32 %72 to i64
  %74 = getelementptr inbounds [500 x [5 x i8]], [500 x [5 x i8]]* %10, i64 0, i64 %73
  %75 = getelementptr inbounds [5 x i8], [5 x i8]* %74, i64 0, i64 0
  %76 = load i32, i32* %4, align 4
  %77 = sext i32 %76 to i64
  %78 = getelementptr inbounds [500 x [5 x i8]], [500 x [5 x i8]]* %10, i64 0, i64 %77
  %79 = getelementptr inbounds [5 x i8], [5 x i8]* %78, i64 0, i64 0
  %80 = call i32 @strcmp(i8* %75, i8* %79) #3
  %81 = icmp eq i32 %80, 0
  br i1 %81, label %82, label %88

82:                                               ; preds = %71
  %83 = load i32, i32* %3, align 4
  %84 = sext i32 %83 to i64
  %85 = getelementptr inbounds [500 x i32], [500 x i32]* %7, i64 0, i64 %84
  %86 = load i32, i32* %85, align 4
  %87 = add nsw i32 %86, 1
  store i32 %87, i32* %85, align 4
  br label %88

88:                                               ; preds = %82, %71
  br label %89

89:                                               ; preds = %88
  %90 = load i32, i32* %4, align 4
  %91 = add nsw i32 %90, 1
  store i32 %91, i32* %4, align 4
  br label %65

92:                                               ; preds = %65
  br label %93

93:                                               ; preds = %92
  %94 = load i32, i32* %3, align 4
  %95 = add nsw i32 %94, 1
  store i32 %95, i32* %3, align 4
  br label %53

96:                                               ; preds = %53
  %97 = getelementptr inbounds [500 x i32], [500 x i32]* %7, i64 0, i64 0
  %98 = load i32, i32* %97, align 16
  store i32 %98, i32* %8, align 4
  store i32 0, i32* %3, align 4
  br label %99

99:                                               ; preds = %118, %96
  %100 = load i32, i32* %3, align 4
  %101 = load i32, i32* %1, align 4
  %102 = load i32, i32* %2, align 4
  %103 = sub nsw i32 %101, %102
  %104 = icmp sle i32 %100, %103
  br i1 %104, label %105, label %121

105:                                              ; preds = %99
  %106 = load i32, i32* %3, align 4
  %107 = sext i32 %106 to i64
  %108 = getelementptr inbounds [500 x i32], [500 x i32]* %7, i64 0, i64 %107
  %109 = load i32, i32* %108, align 4
  %110 = load i32, i32* %8, align 4
  %111 = icmp sgt i32 %109, %110
  br i1 %111, label %112, label %117

112:                                              ; preds = %105
  %113 = load i32, i32* %3, align 4
  %114 = sext i32 %113 to i64
  %115 = getelementptr inbounds [500 x i32], [500 x i32]* %7, i64 0, i64 %114
  %116 = load i32, i32* %115, align 4
  store i32 %116, i32* %8, align 4
  br label %117

117:                                              ; preds = %112, %105
  br label %118

118:                                              ; preds = %117
  %119 = load i32, i32* %3, align 4
  %120 = add nsw i32 %119, 1
  store i32 %120, i32* %3, align 4
  br label %99

121:                                              ; preds = %99
  store i32 0, i32* %3, align 4
  br label %122

122:                                              ; preds = %139, %121
  %123 = load i32, i32* %3, align 4
  %124 = load i32, i32* %1, align 4
  %125 = load i32, i32* %2, align 4
  %126 = sub nsw i32 %124, %125
  %127 = icmp sle i32 %123, %126
  br i1 %127, label %128, label %142

128:                                              ; preds = %122
  %129 = load i32, i32* %3, align 4
  %130 = sext i32 %129 to i64
  %131 = getelementptr inbounds [500 x i32], [500 x i32]* %7, i64 0, i64 %130
  %132 = load i32, i32* %131, align 4
  %133 = load i32, i32* %8, align 4
  %134 = icmp eq i32 %132, %133
  br i1 %134, label %135, label %138

135:                                              ; preds = %128
  %136 = load i32, i32* %5, align 4
  %137 = add nsw i32 %136, 1
  store i32 %137, i32* %5, align 4
  br label %138

138:                                              ; preds = %135, %128
  br label %139

139:                                              ; preds = %138
  %140 = load i32, i32* %3, align 4
  %141 = add nsw i32 %140, 1
  store i32 %141, i32* %3, align 4
  br label %122

142:                                              ; preds = %122
  %143 = load i32, i32* %8, align 4
  %144 = icmp sgt i32 %143, 1
  br i1 %144, label %145, label %172

145:                                              ; preds = %142
  %146 = load i32, i32* %8, align 4
  %147 = call i32 (i8*, ...) @printf(i8* getelementptr inbounds ([4 x i8], [4 x i8]* @.str.2, i64 0, i64 0), i32 %146)
  store i32 0, i32* %3, align 4
  br label %148

148:                                              ; preds = %168, %145
  %149 = load i32, i32* %3, align 4
  %150 = load i32, i32* %1, align 4
  %151 = load i32, i32* %2, align 4
  %152 = sub nsw i32 %150, %151
  %153 = icmp sle i32 %149, %152
  br i1 %153, label %154, label %171

154:                                              ; preds = %148
  %155 = load i32, i32* %3, align 4
  %156 = sext i32 %155 to i64
  %157 = getelementptr inbounds [500 x i32], [500 x i32]* %7, i64 0, i64 %156
  %158 = load i32, i32* %157, align 4
  %159 = load i32, i32* %8, align 4
  %160 = icmp eq i32 %158, %159
  br i1 %160, label %161, label %167

161:                                              ; preds = %154
  %162 = load i32, i32* %3, align 4
  %163 = sext i32 %162 to i64
  %164 = getelementptr inbounds [500 x [5 x i8]], [500 x [5 x i8]]* %10, i64 0, i64 %163
  %165 = getelementptr inbounds [5 x i8], [5 x i8]* %164, i64 0, i64 0
  %166 = call i32 (i8*, ...) @printf(i8* getelementptr inbounds ([4 x i8], [4 x i8]* @.str.3, i64 0, i64 0), i8* %165)
  br label %167

167:                                              ; preds = %161, %154
  br label %168

168:                                              ; preds = %167
  %169 = load i32, i32* %3, align 4
  %170 = add nsw i32 %169, 1
  store i32 %170, i32* %3, align 4
  br label %148

171:                                              ; preds = %148
  br label %174

172:                                              ; preds = %142
  %173 = call i32 (i8*, ...) @printf(i8* getelementptr inbounds ([3 x i8], [3 x i8]* @.str.4, i64 0, i64 0))
  br label %174

174:                                              ; preds = %172, %171
  ret void
}

declare dso_local i32 @__isoc99_scanf(i8*, ...) #1

; Function Attrs: nounwind readonly
declare dso_local i64 @strlen(i8*) #2

; Function Attrs: nounwind readonly
declare dso_local i32 @strcmp(i8*, i8*) #2

declare dso_local i32 @printf(i8*, ...) #1


!llvm.module.flags = !{!0}
!llvm.ident = !{!1}

!0 = !{i32 1, !"wchar_size", i32 4}
!1 = !{!"clang version 10.0.0-4ubuntu1 "}
